target datalayout = "e-m:e-p270:32:32-p271:32:32-p272:64:64-i64:64-i128:128-f80:128-n8:16:32:64-S128"
target triple = "x86_64-pc-linux-gnu"

%struct.WOLFSSL = type <{ ptr, ptr, ptr, ptr, [48 x i8], [48 x i8], ptr, ptr, ptr, ptr, ptr, ptr, ptr, ptr, ptr, ptr, ptr, ptr, ptr, i32, [4 x i8], %struct.WOLFSSL_CIPHER, ptr, %struct.Ciphers, %struct.Ciphers, [8 x i8], %struct.Buffers, ptr, ptr, %struct.WOLFSSL_ALERT_HISTORY, %struct.WOLFSSL_ALERT, i32, i32, i32, i32, i32, i32, i32, i16, [2 x i8], i32, i8, %struct.RecordLayerHeader, %struct.MsgsReceived, %struct.ProtocolVersion, %struct.ProtocolVersion, %struct.CipherSpecs, [2 x i8], %struct.Keys, %struct.Options, ptr, i8, i8, i16, [10 x i16], i8, i8, i16, i16, [38 x i8], i32, i32, [4 x i8], ptr, i8, i8, [6 x i8], ptr, ptr, i16, i8, i8, i32, i8, [3 x i8], i32, %struct.OneTimeAuth, ptr }>
%struct.WOLFSSL_CIPHER = type { i8, i8, ptr }
%struct.Ciphers = type { ptr, ptr, ptr, ptr, i8, i8 }
%struct.Buffers = type { %struct.bufferStatic, %struct.bufferStatic, %struct.WOLFSSL_BUFFER_INFO, %struct.WOLFSSL_BUFFER_INFO, %struct.WOLFSSL_BUFFER_INFO, %struct.WOLFSSL_BUFFER_INFO, i32, i32, i8, i8, i8, i8, %struct.WOLFSSL_BUFFER_INFO, %struct.WOLFSSL_BUFFER_INFO, %struct.WOLFSSL_BUFFER_INFO, %struct.WOLFSSL_BUFFER_INFO, ptr, ptr, ptr, i8, i8, i32, i32, ptr, i32, [1 x ptr] }
%struct.bufferStatic = type { [5 x i8], ptr, i32, i32, i32, i8, i8 }
%struct.WOLFSSL_BUFFER_INFO = type { ptr, i32 }
%struct.WOLFSSL_ALERT_HISTORY = type { %struct.WOLFSSL_ALERT, %struct.WOLFSSL_ALERT }
%struct.WOLFSSL_ALERT = type { i32, i32 }
%struct.RecordLayerHeader = type { i8, i8, i8, [2 x i8] }
%struct.MsgsReceived = type { i32 }
%struct.ProtocolVersion = type { i8, i8 }
%struct.CipherSpecs = type { i16, i16, i16, i16, i8, i8, i8, i8, i8, i8, i8, i8 }
%struct.Keys = type { [64 x i8], [64 x i8], [32 x i8], [32 x i8], [16 x i8], [16 x i8], [8 x i8], [12 x i8], [12 x i8], i32, i32, i32, i32, i32, i32, i8, i8, i8, i8 }
%struct.Options = type { i64, i64, i8, i8, i8, i8, i8, i8, i8, i8, i8, i8, i8, i8, i8, i8, i8, i8, i8, i8, i8, i8, i8, i16, i16, i16, i16, i16, i8 }
%struct.OneTimeAuth = type { ptr, i8 }

; Function Attrs: nounwind uwtable
define internal i32 @DoTls13KeyUpdate(ptr noundef %0, ptr noundef %1, ptr noundef %2, i32 noundef %3) #0 {
  %5 = alloca i32, align 4
  %6 = alloca ptr, align 8
  %7 = alloca ptr, align 8
  %8 = alloca ptr, align 8
  %9 = alloca i32, align 4
  %10 = alloca i32, align 4
  %11 = alloca i32, align 4
  %12 = alloca i32, align 4
  store ptr %0, ptr %6, align 8, !tbaa !3
  store ptr %1, ptr %7, align 8, !tbaa !8
  store ptr %2, ptr %8, align 8, !tbaa !125
  store i32 %3, ptr %9, align 4, !tbaa !10
  call void @llvm.lifetime.start.p0(i64 4, ptr %10) #8
  call void @llvm.lifetime.start.p0(i64 4, ptr %11) #8
  %13 = load ptr, ptr %8, align 8, !tbaa !125
  %14 = load i32, ptr %13, align 4, !tbaa !10
  store i32 %14, ptr %11, align 4, !tbaa !10
  br label %15

15:                                               ; preds = %4
  br label %16

16:                                               ; preds = %15
  br label %17

17:                                               ; preds = %16
  br label %18

18:                                               ; preds = %17
  br label %19

19:                                               ; preds = %18
  br label %20

20:                                               ; preds = %19
  %21 = load i32, ptr %9, align 4, !tbaa !10
  %22 = icmp ne i32 1, %21
  br i1 %22, label %23, label %24

23:                                               ; preds = %20
  store i32 -132, ptr %5, align 4
  store i32 1, ptr %12, align 4
  br label %82

24:                                               ; preds = %20
  %25 = load ptr, ptr %7, align 8, !tbaa !8
  %26 = load i32, ptr %11, align 4, !tbaa !10
  %27 = zext i32 %26 to i64
  %28 = getelementptr inbounds nuw i8, ptr %25, i64 %27
  %29 = load i8, ptr %28, align 1, !tbaa !58
  %30 = zext i8 %29 to i32
  switch i32 %30, label %42 [
    i32 0, label %31
    i32 1, label %38
  ]

31:                                               ; preds = %24
  %32 = load ptr, ptr %6, align 8, !tbaa !3
  %33 = getelementptr inbounds nuw %struct.WOLFSSL, ptr %32, i32 0, i32 48
  %34 = getelementptr inbounds nuw %struct.Keys, ptr %33, i32 0, i32 18
  store i8 0, ptr %34, align 1, !tbaa !162
  %35 = load ptr, ptr %6, align 8, !tbaa !3
  %36 = getelementptr inbounds nuw %struct.WOLFSSL, ptr %35, i32 0, i32 48
  %37 = getelementptr inbounds nuw %struct.Keys, ptr %36, i32 0, i32 17
  store i8 0, ptr %37, align 2, !tbaa !161
  br label %43

38:                                               ; preds = %24
  %39 = load ptr, ptr %6, align 8, !tbaa !3
  %40 = getelementptr inbounds nuw %struct.WOLFSSL, ptr %39, i32 0, i32 48
  %41 = getelementptr inbounds nuw %struct.Keys, ptr %40, i32 0, i32 18
  store i8 1, ptr %41, align 1, !tbaa !162
  br label %43

42:                                               ; preds = %24
  store i32 -425, ptr %5, align 4
  store i32 1, ptr %12, align 4
  br label %82

43:                                               ; preds = %38, %31
  %44 = load i32, ptr %9, align 4, !tbaa !10
  %45 = load ptr, ptr %8, align 8, !tbaa !125
  %46 = load i32, ptr %45, align 4, !tbaa !10
  %47 = add i32 %46, %44
  store i32 %47, ptr %45, align 4, !tbaa !10
  %48 = load ptr, ptr %6, align 8, !tbaa !3
  %49 = getelementptr inbounds nuw %struct.WOLFSSL, ptr %48, i32 0, i32 48
  %50 = getelementptr inbounds nuw %struct.Keys, ptr %49, i32 0, i32 14
  %51 = load i32, ptr %50, align 4, !tbaa !159
  %52 = load ptr, ptr %8, align 8, !tbaa !125
  %53 = load i32, ptr %52, align 4, !tbaa !10
  %54 = add i32 %53, %51
  store i32 %54, ptr %52, align 4, !tbaa !10
  %55 = load ptr, ptr %6, align 8, !tbaa !3
  %56 = call i32 @DeriveTls13Keys(ptr noundef %55, i32 noundef 4, i32 noundef 2, i32 noundef 1)
  store i32 %56, ptr %10, align 4, !tbaa !10
  %57 = icmp ne i32 %56, 0
  br i1 %57, label %58, label %60

58:                                               ; preds = %43
  %59 = load i32, ptr %10, align 4, !tbaa !10
  store i32 %59, ptr %5, align 4
  store i32 1, ptr %12, align 4
  br label %82

60:                                               ; preds = %43
  %61 = load ptr, ptr %6, align 8, !tbaa !3
  %62 = call i32 @SetKeysSide(ptr noundef %61, i32 noundef 2)
  store i32 %62, ptr %10, align 4, !tbaa !10
  %63 = icmp ne i32 %62, 0
  br i1 %63, label %64, label %66

64:                                               ; preds = %60
  %65 = load i32, ptr %10, align 4, !tbaa !10
  store i32 %65, ptr %5, align 4
  store i32 1, ptr %12, align 4
  br label %82

66:                                               ; preds = %60
  %67 = load ptr, ptr %6, align 8, !tbaa !3
  %68 = getelementptr inbounds nuw %struct.WOLFSSL, ptr %67, i32 0, i32 48
  %69 = getelementptr inbounds nuw %struct.Keys, ptr %68, i32 0, i32 18
  %70 = load i8, ptr %69, align 1, !tbaa !162
  %71 = icmp ne i8 %70, 0
  br i1 %71, label %72, label %75

72:                                               ; preds = %66
  %73 = load ptr, ptr %6, align 8, !tbaa !3
  %74 = call i32 @SendTls13KeyUpdate(ptr noundef %73)
  store i32 %74, ptr %5, align 4
  store i32 1, ptr %12, align 4
  br label %82

75:                                               ; preds = %66
  br label %76

76:                                               ; preds = %75
  br label %77

77:                                               ; preds = %76
  br label %78

78:                                               ; preds = %77
  br label %79

79:                                               ; preds = %78
  br label %80

80:                                               ; preds = %79
  br label %81

81:                                               ; preds = %80
  store i32 0, ptr %5, align 4
  store i32 1, ptr %12, align 4
  br label %82

82:                                               ; preds = %81, %72, %64, %58, %42, %23
  call void @llvm.lifetime.end.p0(i64 4, ptr %11) #8
  call void @llvm.lifetime.end.p0(i64 4, ptr %10) #8
  %83 = load i32, ptr %5, align 4
  ret i32 %83
}