; Function Attrs: nounwind uwtable
define internal fastcc i32 @DoTls13KeyUpdate(ptr noundef %0, ptr noundef readonly captures(none) %1, ptr noundef captures(none) %2, i32 noundef %3) unnamed_addr #0 {
  %.not = icmp eq i32 %3, 1
  br i1 %.not, label %5, label %28

5:                                                ; preds = %4
  %6 = load i32, ptr %2, align 4, !tbaa !109
  %7 = zext i32 %6 to i64
  %8 = getelementptr inbounds nuw i8, ptr %1, i64 %7
  %9 = load i8, ptr %8, align 1, !tbaa !57
  switch i8 %9, label %28 [
    i8 0, label %10
    i8 1, label %13
  ]

10:                                               ; preds = %5
  %11 = getelementptr inbounds nuw i8, ptr %0, i64 1015
  store i8 0, ptr %11, align 1, !tbaa !126
  %12 = getelementptr inbounds nuw i8, ptr %0, i64 1014
  store i8 0, ptr %12, align 2, !tbaa !125
  br label %15

13:                                               ; preds = %5
  %14 = getelementptr inbounds nuw i8, ptr %0, i64 1015
  store i8 1, ptr %14, align 1, !tbaa !126
  br label %15

15:                                               ; preds = %13, %10
  %16 = add i32 %6, 1
  store i32 %16, ptr %2, align 4, !tbaa !109
  %17 = getelementptr inbounds nuw i8, ptr %0, i64 1008
  %18 = load i32, ptr %17, align 4, !tbaa !123
  %19 = add i32 %18, %16
  store i32 %19, ptr %2, align 4, !tbaa !109
  %20 = tail call i32 @DeriveTls13Keys(ptr noundef nonnull %0, i32 noundef 4, i32 noundef 2, i32 noundef 1)
  %.not20 = icmp eq i32 %20, 0
  br i1 %.not20, label %21, label %28

21:                                               ; preds = %15
  %22 = tail call i32 @SetKeysSide(ptr noundef nonnull %0, i32 noundef 2) #11
  %.not21 = icmp eq i32 %22, 0
  br i1 %.not21, label %23, label %28

23:                                               ; preds = %21
  %24 = getelementptr inbounds nuw i8, ptr %0, i64 1015
  %25 = load i8, ptr %24, align 1, !tbaa !126
  %.not22 = icmp eq i8 %25, 0
  br i1 %.not22, label %28, label %26

26:                                               ; preds = %23
  %27 = tail call i32 @SendTls13KeyUpdate(ptr noundef nonnull %0)
  br label %28

28:                                               ; preds = %23, %21, %15, %5, %4, %26
  %.0 = phi i32 [ %27, %26 ], [ -132, %4 ], [ -425, %5 ], [ %20, %15 ], [ %22, %21 ], [ 0, %23 ]
  ret i32 %.0
}